; Function Attrs: nounwind uwtable
define dso_local range(i32 0, 8) i32 @Curl_socket_open(ptr noundef %0, ptr noundef readonly captures(none) %1, ptr noundef %2, i32 noundef %3, ptr noundef captures(none) initializes((0, 4)) %4) local_unnamed_addr #2 {
  %6 = alloca %struct.Curl_sockaddr_ex, align 8
  %.not = icmp eq ptr %2, null
  %spec.select = select i1 %.not, ptr %6, ptr %2
  %7 = getelementptr inbounds nuw i8, ptr %1, i64 4
  %8 = load i32, ptr %7, align 4
  store i32 %8, ptr %spec.select, align 8
  switch i32 %3, label %10 [
    i32 3, label %Curl_sock_assign_addr.exit
    i32 6, label %9
  ]

9:                                                ; preds = %5
  br label %Curl_sock_assign_addr.exit

10:                                               ; preds = %5
  br label %Curl_sock_assign_addr.exit

Curl_sock_assign_addr.exit:                       ; preds = %5, %9, %10
  %.sink15.i = phi i32 [ 2, %10 ], [ 1, %9 ], [ 1, %5 ]
  %.sink.i = phi i32 [ 17, %10 ], [ 0, %9 ], [ 6, %5 ]
  %spec.select.sroa.sel.v.sroa.sel.v.sroa.sel.v = select i1 %.not, ptr %6, ptr %2
  %spec.select.sroa.sel.v.sroa.sel.v.sroa.sel = getelementptr inbounds nuw i8, ptr %spec.select.sroa.sel.v.sroa.sel.v.sroa.sel.v, i64 8
  %spec.select.sroa.sel10.v.sroa.sel.v.sroa.sel.v = select i1 %.not, ptr %6, ptr %2
  %spec.select.sroa.sel10.v.sroa.sel.v.sroa.sel = getelementptr inbounds nuw i8, ptr %spec.select.sroa.sel10.v.sroa.sel.v.sroa.sel.v, i64 4
  store i32 %.sink15.i, ptr %spec.select.sroa.sel10.v.sroa.sel.v.sroa.sel, align 4
  store i32 %.sink.i, ptr %spec.select.sroa.sel.v.sroa.sel.v.sroa.sel, align 8
  %11 = getelementptr inbounds nuw i8, ptr %1, i64 16
  %12 = load i32, ptr %11, align 8
  %spec.select.i = tail call i32 @llvm.umin.i32(i32 %12, i32 128)
  %spec.select.sroa.sel13.v.sroa.sel.v.sroa.sel.v = select i1 %.not, ptr %6, ptr %2
  %spec.select.sroa.sel13.v.sroa.sel.v.sroa.sel = getelementptr inbounds nuw i8, ptr %spec.select.sroa.sel13.v.sroa.sel.v.sroa.sel.v, i64 12
  store i32 %spec.select.i, ptr %spec.select.sroa.sel13.v.sroa.sel.v.sroa.sel, align 4
  %spec.select.sroa.sel16.v.sroa.sel.v.sroa.sel.v = select i1 %.not, ptr %6, ptr %2
  %spec.select.sroa.sel16.v.sroa.sel.v.sroa.sel = getelementptr inbounds nuw i8, ptr %spec.select.sroa.sel16.v.sroa.sel.v.sroa.sel.v, i64 16
  %13 = getelementptr inbounds nuw i8, ptr %1, i64 32
  %14 = load ptr, ptr %13, align 8
  %15 = zext nneg i32 %spec.select.i to i64
  call void @llvm.memcpy.p0.p0.i64(ptr nonnull align 8 %spec.select.sroa.sel16.v.sroa.sel.v.sroa.sel, ptr align 2 %14, i64 %15, i1 false)
  %16 = getelementptr inbounds nuw i8, ptr %0, i64 600
  %17 = load ptr, ptr %16, align 8
  %.not.i = icmp eq ptr %17, null
  br i1 %.not.i, label %23, label %18

18:                                               ; preds = %Curl_sock_assign_addr.exit
  tail call void @Curl_set_in_callback(ptr noundef nonnull %0, i1 noundef zeroext true) #13
  %19 = load ptr, ptr %16, align 8
  %20 = getelementptr inbounds nuw i8, ptr %0, i64 608
  %21 = load ptr, ptr %20, align 8
  %22 = call i32 %19(ptr noundef %21, i32 noundef 0, ptr noundef nonnull %spec.select) #13
  store i32 %22, ptr %4, align 4
  call void @Curl_set_in_callback(ptr noundef nonnull %0, i1 noundef zeroext false) #13
  %.pr.i = load i32, ptr %4, align 4
  br label %25

23:                                               ; preds = %Curl_sock_assign_addr.exit
  %24 = tail call i32 @socket(i32 noundef %8, i32 noundef %.sink15.i, i32 noundef %.sink.i) #13
  store i32 %24, ptr %4, align 4
  br label %25

25:                                               ; preds = %23, %18
  %26 = phi i32 [ %24, %23 ], [ %.pr.i, %18 ]
  %27 = icmp eq i32 %26, -1
  br i1 %27, label %socket_open.exit, label %28

28:                                               ; preds = %25
  %29 = getelementptr inbounds nuw i8, ptr %0, i64 32
  %30 = load ptr, ptr %29, align 8
  %31 = getelementptr inbounds nuw i8, ptr %30, i64 1140
  %32 = load i32, ptr %31, align 4
  %.not18.i = icmp eq i32 %32, 0
  br i1 %.not18.i, label %socket_open.exit, label %33

33:                                               ; preds = %28
  %34 = load i32, ptr %spec.select, align 8
  %35 = icmp eq i32 %34, 10
  br i1 %35, label %36, label %socket_open.exit

36:                                               ; preds = %33
  %spec.select.sroa.sel19.v.sroa.sel.v.sroa.sel.v = select i1 %.not, ptr %6, ptr %2
  %spec.select.sroa.sel19.v.sroa.sel.v.sroa.sel = getelementptr inbounds nuw i8, ptr %spec.select.sroa.sel19.v.sroa.sel.v.sroa.sel.v, i64 40
  store i32 %32, ptr %spec.select.sroa.sel19.v.sroa.sel.v.sroa.sel, align 4
  br label %socket_open.exit

socket_open.exit:                                 ; preds = %25, %28, %33, %36
  %.0.i = phi i32 [ 7, %25 ], [ 0, %36 ], [ 0, %33 ], [ 0, %28 ]
  ret i32 %.0.i
}